; Function Attrs: mustprogress uwtable
define void @_ZN3gmx17TranslateAndScaleC2ERKNS_11BasicVectorIfEES4_(ptr nocapture noundef nonnull writeonly align 8 dereferenceable(8) %0, ptr noundef nonnull align 4 dereferenceable(12) %1, ptr noundef nonnull align 4 dereferenceable(12) %2) unnamed_addr #3 align 2 personality ptr @__gxx_personality_v0 {
  %4 = tail call noalias noundef nonnull dereferenceable(24) ptr @_Znwm(i64 noundef 24) #16
  invoke void @_ZN3gmx17TranslateAndScale4ImplC1ERKNS_11BasicVectorIfEES5_(ptr noundef nonnull align 4 dereferenceable(24) %4, ptr noundef nonnull align 4 dereferenceable(12) %1, ptr noundef nonnull align 4 dereferenceable(12) %2)
          to label %5 unwind label %6

5:                                                ; preds = %3
  store ptr %4, ptr %0, align 8
  ret void

6:                                                ; preds = %3
  %7 = landingpad { ptr, i32 }
          cleanup
  tail call void @_ZdlPv(ptr noundef nonnull %4) #17
  resume { ptr, i32 } %7
}